; Function Attrs: mustprogress nofree norecurse nosync nounwind willreturn memory(read, inaccessiblemem: none) uwtable
define i32 @Abc_NodeFanin0Copy2(ptr noundef readonly captures(none) %0) local_unnamed_addr #0 {
  %.val = load ptr, ptr %0, align 8, !tbaa !44
  %2 = getelementptr i8, ptr %0, i64 32
  %.val2 = load ptr, ptr %2, align 8, !tbaa !45
  %3 = getelementptr i8, ptr %.val, i64 32
  %.val.val = load ptr, ptr %3, align 8, !tbaa !13
  %.val2.val = load i32, ptr %.val2, align 4, !tbaa !10
  %4 = getelementptr i8, ptr %.val.val, i64 8
  %.val.val.val = load ptr, ptr %4, align 8, !tbaa !28
  %5 = sext i32 %.val2.val to i64
  %6 = getelementptr inbounds ptr, ptr %.val.val.val, i64 %5
  %7 = load ptr, ptr %6, align 8, !tbaa !30
  %8 = getelementptr inbounds nuw i8, ptr %7, i64 64
  %9 = load i32, ptr %8, align 8, !tbaa !46
  %10 = getelementptr i8, ptr %0, i64 20
  %.val3 = load i32, ptr %10, align 4
  %11 = lshr i32 %.val3, 10
  %12 = and i32 %11, 1
  %13 = xor i32 %12, %9
  ret i32 %13
}